target datalayout = "e-m:e-p270:32:32-p271:32:32-p272:64:64-i64:64-i128:128-f80:128-n8:16:32:64-S128"
target triple = "x86_64-unknown-linux-gnu"

%struct.thermal_governor = type { [20 x i8], ptr, ptr, ptr, ptr, %struct.list_head }
%struct.list_head = type { ptr, ptr }

@thermal_gov_user_space = internal global %struct.thermal_governor { [20 x i8] c"user_space\00\00\00\00\00\00\00\00\00\00", ptr @user_space_bind, ptr null, ptr @notify_user_space, ptr null, %struct.list_head zeroinitializer }, align 8
@__thermal_table_entry_thermal_gov_user_space = internal global ptr @thermal_gov_user_space, section "__governor_thermal_table", align 8
@user_space_bind.__already_done = internal unnamed_addr global i1 false, section ".data.once", align 1
@.str = private unnamed_addr constant [51 x i8] c"\016Consider using thermal netlink events interface\0A\00", align 1
@.str.1 = private unnamed_addr constant [8 x i8] c"NAME=%s\00", align 1
@.str.2 = private unnamed_addr constant [8 x i8] c"TEMP=%d\00", align 1
@.str.3 = private unnamed_addr constant [8 x i8] c"TRIP=%d\00", align 1
@.str.4 = private unnamed_addr constant [9 x i8] c"EVENT=%d\00", align 1
@llvm.compiler.used = appending global [1 x ptr] [ptr @__thermal_table_entry_thermal_gov_user_space], section "llvm.metadata"

; Function Attrs: fn_ret_thunk_extern nounwind null_pointer_is_valid
define internal noundef i32 @user_space_bind(ptr nocapture readnone %0) #0 align 16 {
  %2 = load i1, ptr @user_space_bind.__already_done, align 1
  br i1 %2, label %5, label %3, !prof !5

3:                                                ; preds = %1
  store i1 true, ptr @user_space_bind.__already_done, align 1
  %4 = tail call i32 (ptr, ...) @_printk(ptr noundef nonnull @.str) #5
  br label %5

5:                                                ; preds = %3, %1
  ret i32 0
}

; Function Attrs: fn_ret_thunk_extern nounwind null_pointer_is_valid
define internal noundef i32 @notify_user_space(ptr noundef %0, ptr noundef %1) #0 align 16 {
  %3 = alloca [5 x ptr], align 16
  call void @llvm.lifetime.start.p0(i64 40, ptr nonnull %3) #6
  call void @llvm.memset.p0.i64(ptr noundef nonnull align 16 dereferenceable(40) %3, i8 0, i64 40, i1 false), !annotation !6
  %4 = getelementptr inbounds i8, ptr %0, i64 4
  %5 = tail call noalias ptr (i32, ptr, ...) @kasprintf(i32 noundef 3264, ptr noundef nonnull @.str.1, ptr noundef %4) #6
  store ptr %5, ptr %3, align 16
  %6 = getelementptr inbounds i8, ptr %0, i64 896
  %7 = load i32, ptr %6, align 8
  %8 = tail call noalias ptr (i32, ptr, ...) @kasprintf(i32 noundef 3264, ptr noundef nonnull @.str.2, i32 noundef %7) #6
  %9 = getelementptr inbounds i8, ptr %3, i64 8
  store ptr %8, ptr %9, align 8
  %10 = tail call i32 @thermal_zone_trip_id(ptr noundef %0, ptr noundef %1) #6
  %11 = tail call noalias ptr (i32, ptr, ...) @kasprintf(i32 noundef 3264, ptr noundef nonnull @.str.3, i32 noundef %10) #6
  %12 = getelementptr inbounds i8, ptr %3, i64 16
  store ptr %11, ptr %12, align 16
  %13 = getelementptr inbounds i8, ptr %0, i64 1128
  %14 = load i32, ptr %13, align 8
  %15 = tail call noalias ptr (i32, ptr, ...) @kasprintf(i32 noundef 3264, ptr noundef nonnull @.str.4, i32 noundef %14) #6
  %16 = getelementptr inbounds i8, ptr %3, i64 24
  store ptr %15, ptr %16, align 8
  %17 = getelementptr inbounds i8, ptr %3, i64 32
  store ptr null, ptr %17, align 16
  %18 = getelementptr inbounds i8, ptr %0, i64 24
  %19 = call i32 @kobject_uevent_env(ptr noundef %18, i32 noundef 2, ptr noundef nonnull %3) #6
  br label %20

20:                                               ; preds = %20, %2
  %21 = phi i64 [ 0, %2 ], [ %24, %20 ]
  %22 = getelementptr [5 x ptr], ptr %3, i64 0, i64 %21
  %23 = load ptr, ptr %22, align 8
  call void @kfree(ptr noundef %23) #6
  %24 = add nuw nsw i64 %21, 1
  %25 = icmp eq i64 %24, 4
  br i1 %25, label %26, label %20, !llvm.loop !7

26:                                               ; preds = %20
  call void @llvm.lifetime.end.p0(i64 40, ptr nonnull %3) #6
  ret i32 0
}

; Function Attrs: nocallback nofree nosync nounwind willreturn memory(argmem: readwrite)
declare void @llvm.lifetime.start.p0(i64 immarg, ptr nocapture) #1

; Function Attrs: nocallback nofree nosync nounwind willreturn memory(argmem: readwrite)
declare void @llvm.lifetime.end.p0(i64 immarg, ptr nocapture) #1

; Function Attrs: cold null_pointer_is_valid
declare dso_local i32 @_printk(ptr noundef, ...) local_unnamed_addr #2

; Function Attrs: nocallback nofree nounwind willreturn memory(argmem: write)
declare void @llvm.memset.p0.i64(ptr nocapture writeonly, i8, i64, i1 immarg) #3

; Function Attrs: null_pointer_is_valid
declare dso_local noalias ptr @kasprintf(i32 noundef, ptr noundef, ...) local_unnamed_addr #4

; Function Attrs: null_pointer_is_valid
declare dso_local i32 @thermal_zone_trip_id(ptr noundef, ptr noundef) local_unnamed_addr #4

; Function Attrs: null_pointer_is_valid
declare dso_local i32 @kobject_uevent_env(ptr noundef, i32 noundef, ptr noundef) local_unnamed_addr #4

; Function Attrs: null_pointer_is_valid
declare dso_local void @kfree(ptr noundef) local_unnamed_addr #4


!llvm.module.flags = !{!0, !1, !2, !3, !4}

!0 = !{i32 1, !"wchar_size", i32 2}
!1 = !{i32 8, !"cf-protection-branch", i32 1}
!2 = !{i32 4, !"function_return_thunk_extern", i32 1}
!3 = !{i32 4, !"indirect_branch_cs_prefix", i32 1}
!4 = !{i32 4, !"SkipRaxSetup", i32 1}
!5 = !{!"branch_weights", i32 2000, i32 1}
!6 = !{!"auto-init"}
!7 = distinct !{!7, !8, !9}
!8 = !{!"llvm.loop.mustprogress"}
!9 = !{!"llvm.loop.unroll.disable"}
